; Function Attrs: nounwind uwtable
define internal void @encode_hclr(ptr noundef %0) #1 {
  %2 = alloca [12 x i8], align 4
  %3 = getelementptr inbounds nuw i8, ptr %0, i64 1096
  %4 = load i8, ptr %3, align 8, !tbaa !76
  %5 = and i8 %4, 4
  %.not = icmp eq i8 %5, 0
  br i1 %.not, label %13, label %6

6:                                                ; preds = %1
  call void @llvm.lifetime.start.p0(i64 12, ptr nonnull %2) #8
  store i32 201326592, ptr %2, align 4, !tbaa !58
  %7 = getelementptr inbounds nuw i8, ptr %2, i64 4
  store i32 1919705960, ptr %7, align 4, !tbaa !58
  %8 = getelementptr inbounds nuw i8, ptr %2, i64 8
  %9 = getelementptr inbounds nuw i8, ptr %0, i64 1092
  %10 = load i32, ptr %9, align 4, !tbaa !108
  %11 = tail call i32 @llvm.bswap.i32(i32 %10)
  store i32 %11, ptr %8, align 4, !tbaa !58
  %12 = getelementptr inbounds nuw i8, ptr %0, i64 64
  call void @av_bprint_append_data(ptr noundef nonnull %12, ptr noundef nonnull %2, i32 noundef 12) #8
  call void @llvm.lifetime.end.p0(i64 12, ptr nonnull %2) #8
  br label %13

13:                                               ; preds = %6, %1
  ret void
}